; ModuleID = 'source-C-CXX/35/66.c'
source_filename = "source-C-CXX/35/66.c"
target datalayout = "e-m:e-p270:32:32-p271:32:32-p272:64:64-i64:64-f80:128-n8:16:32:64-S128"
target triple = "x86_64-pc-linux-gnu"

@.str = private unnamed_addr constant [5 x i8] c"%s%s\00", align 1
@str = private unnamed_addr constant [4 x i8] c"YES\00", align 1
@str.4 = private unnamed_addr constant [3 x i8] c"NO\00", align 1

; Function Attrs: nofree nounwind sspstrong uwtable
define dso_local void @main() local_unnamed_addr #0 {
  %1 = alloca [100 x i8], align 16
  %2 = alloca [100 x i8], align 16
  %3 = getelementptr inbounds [100 x i8], [100 x i8]* %1, i64 0, i64 0
  call void @llvm.lifetime.start.p0i8(i64 100, i8* nonnull %3) #5
  %4 = getelementptr inbounds [100 x i8], [100 x i8]* %2, i64 0, i64 0
  call void @llvm.lifetime.start.p0i8(i64 100, i8* nonnull %4) #5
  %5 = call i32 (i8*, ...) @__isoc99_scanf(i8* getelementptr inbounds ([5 x i8], [5 x i8]* @.str, i64 0, i64 0), i8* nonnull %3, i8* nonnull %4)
  %6 = call i64 @strlen(i8* noundef nonnull %3) #6
  %7 = call i64 @strlen(i8* noundef nonnull %4) #6
  %8 = icmp eq i64 %6, %7
  br i1 %8, label %9, label %12

9:                                                ; preds = %0
  %10 = load i8, i8* %3, align 16, !tbaa !5
  %11 = icmp eq i8 %10, 0
  br i1 %11, label %33, label %14

12:                                               ; preds = %0
  %13 = call i32 (i8*, ...) @printf(i8* nonnull dereferenceable(1) getelementptr inbounds ([3 x i8], [3 x i8]* @str.4, i64 0, i64 0))
  br label %33

14:                                               ; preds = %9, %28
  %15 = phi i8 [ %31, %28 ], [ %10, %9 ]
  %16 = phi i8* [ %29, %28 ], [ %4, %9 ]
  %17 = phi i8* [ %30, %28 ], [ %3, %9 ]
  %18 = load i8, i8* %16, align 1, !tbaa !5
  %19 = icmp eq i8 %18, 0
  br i1 %19, label %33, label %20

20:                                               ; preds = %14, %24
  %21 = phi i8 [ %26, %24 ], [ %18, %14 ]
  %22 = phi i8* [ %25, %24 ], [ %16, %14 ]
  %23 = icmp eq i8 %21, %15
  br i1 %23, label %28, label %24

24:                                               ; preds = %20
  %25 = getelementptr inbounds i8, i8* %22, i64 1
  %26 = load i8, i8* %25, align 1, !tbaa !5
  %27 = icmp eq i8 %26, 0
  br i1 %27, label %33, label %20, !llvm.loop !8

28:                                               ; preds = %20
  store i8 %18, i8* %22, align 1, !tbaa !5
  store i8 %15, i8* %16, align 1, !tbaa !5
  %29 = getelementptr inbounds i8, i8* %16, i64 1
  %30 = getelementptr inbounds i8, i8* %17, i64 1
  %31 = load i8, i8* %30, align 1, !tbaa !5
  %32 = icmp eq i8 %31, 0
  br i1 %32, label %33, label %14, !llvm.loop !10

33:                                               ; preds = %28, %14, %24, %12, %9
  %34 = phi i8* [ getelementptr inbounds ([4 x i8], [4 x i8]* @str, i64 0, i64 0), %9 ], [ getelementptr inbounds ([4 x i8], [4 x i8]* @str, i64 0, i64 0), %12 ], [ getelementptr inbounds ([3 x i8], [3 x i8]* @str.4, i64 0, i64 0), %24 ], [ getelementptr inbounds ([3 x i8], [3 x i8]* @str.4, i64 0, i64 0), %14 ], [ getelementptr inbounds ([4 x i8], [4 x i8]* @str, i64 0, i64 0), %28 ]
  %35 = call i32 @puts(i8* nonnull dereferenceable(1) %34)
  call void @llvm.lifetime.end.p0i8(i64 100, i8* nonnull %4) #5
  call void @llvm.lifetime.end.p0i8(i64 100, i8* nonnull %3) #5
  ret void
}

; Function Attrs: argmemonly mustprogress nofree nosync nounwind willreturn
declare void @llvm.lifetime.start.p0i8(i64 immarg, i8* nocapture) #1

; Function Attrs: nofree nounwind
declare noundef i32 @__isoc99_scanf(i8* nocapture noundef readonly, ...) local_unnamed_addr #2

; Function Attrs: argmemonly mustprogress nofree nounwind readonly willreturn
declare i64 @strlen(i8* nocapture) local_unnamed_addr #3

; Function Attrs: nofree nounwind
declare noundef i32 @printf(i8* nocapture noundef readonly, ...) local_unnamed_addr #2

; Function Attrs: argmemonly mustprogress nofree nosync nounwind willreturn
declare void @llvm.lifetime.end.p0i8(i64 immarg, i8* nocapture) #1

; Function Attrs: nofree nounwind
declare noundef i32 @puts(i8* nocapture noundef readonly) local_unnamed_addr #4


!llvm.module.flags = !{!0, !1, !2, !3}
!llvm.ident = !{!4}

!0 = !{i32 1, !"wchar_size", i32 4}
!1 = !{i32 7, !"PIC Level", i32 2}
!2 = !{i32 7, !"PIE Level", i32 2}
!3 = !{i32 7, !"uwtable", i32 1}
!4 = !{!"clang version 13.0.0"}
!5 = !{!6, !6, i64 0}
!6 = !{!"omnipotent char", !7, i64 0}
!7 = !{!"Simple C/C++ TBAA"}
!8 = distinct !{!8, !9}
!9 = !{!"llvm.loop.mustprogress"}
!10 = distinct !{!10, !9}
